target datalayout = "e-m:e-p270:32:32-p271:32:32-p272:64:64-i64:64-i128:128-f80:128-n8:16:32:64-S128"
target triple = "x86_64-pc-linux-gnu"

%struct.Inter_Man_t_ = type { ptr, ptr, ptr, ptr, ptr, ptr, ptr, ptr, ptr, ptr, i32, i32, i32, i32, ptr, i64, i64, i64, i64, i64, i64, i64 }

@.str = private unnamed_addr constant [10 x i8] c"invar.aig\00", align 1
@.str.1 = private unnamed_addr constant [47 x i8] c"Inductive invariant is dumped into file \22%s\22.\0A\00", align 1
@.str.2 = private unnamed_addr constant [41 x i8] c"Interpolants are dumped into file \22%s\22.\0A\00", align 1

; Function Attrs: nounwind uwtable
define void @Inter_ManInterDump(ptr noundef %0, i32 noundef %1) #0 {
  %3 = alloca ptr, align 8
  %4 = alloca i32, align 4
  %5 = alloca ptr, align 8
  %6 = alloca ptr, align 8
  store ptr %0, ptr %3, align 8, !tbaa !10
  store i32 %1, ptr %4, align 4, !tbaa !30
  call void @llvm.lifetime.start.p0(i64 8, ptr %5) #9
  %7 = load ptr, ptr %3, align 8, !tbaa !10
  %8 = getelementptr inbounds nuw %struct.Inter_Man_t_, ptr %7, i32 0, i32 14
  %9 = load ptr, ptr %8, align 8, !tbaa !26
  %10 = icmp ne ptr %9, null
  br i1 %10, label %11, label %15

11:                                               ; preds = %2
  %12 = load ptr, ptr %3, align 8, !tbaa !10
  %13 = getelementptr inbounds nuw %struct.Inter_Man_t_, ptr %12, i32 0, i32 14
  %14 = load ptr, ptr %13, align 8, !tbaa !26
  br label %16

15:                                               ; preds = %2
  br label %16

16:                                               ; preds = %15, %11
  %17 = phi ptr [ %14, %11 ], [ @.str, %15 ]
  store ptr %17, ptr %5, align 8, !tbaa !57
  call void @llvm.lifetime.start.p0(i64 8, ptr %6) #9
  %18 = load ptr, ptr %3, align 8, !tbaa !10
  %19 = getelementptr inbounds nuw %struct.Inter_Man_t_, ptr %18, i32 0, i32 9
  %20 = load ptr, ptr %19, align 8, !tbaa !29
  %21 = call ptr @Aig_ManDupArray(ptr noundef %20)
  store ptr %21, ptr %6, align 8, !tbaa !3
  %22 = load ptr, ptr %6, align 8, !tbaa !3
  %23 = load ptr, ptr %5, align 8, !tbaa !57
  call void @Ioa_WriteAiger(ptr noundef %22, ptr noundef %23, i32 noundef 0, i32 noundef 0)
  %24 = load ptr, ptr %6, align 8, !tbaa !3
  call void @Aig_ManStop(ptr noundef %24)
  %25 = load i32, ptr %4, align 4, !tbaa !30
  %26 = icmp ne i32 %25, 0
  br i1 %26, label %27, label %30

27:                                               ; preds = %16
  %28 = load ptr, ptr %5, align 8, !tbaa !57
  %29 = call i32 (ptr, ...) @printf(ptr noundef @.str.1, ptr noundef %28)
  br label %33

30:                                               ; preds = %16
  %31 = load ptr, ptr %5, align 8, !tbaa !57
  %32 = call i32 (ptr, ...) @printf(ptr noundef @.str.2, ptr noundef %31)
  br label %33

33:                                               ; preds = %30, %27
  call void @llvm.lifetime.end.p0(i64 8, ptr %6) #9
  call void @llvm.lifetime.end.p0(i64 8, ptr %5) #9
  ret void
}