; Function Attrs: nounwind uwtable
define void @Inter_ManInterDump(ptr noundef readonly captures(none) %0, i32 noundef %1) local_unnamed_addr #3 {
  %3 = getelementptr inbounds nuw i8, ptr %0, i64 96
  %4 = load ptr, ptr %3, align 8, !tbaa !34
  %.not = icmp eq ptr %4, null
  %spec.select = select i1 %.not, ptr @.str, ptr %4
  %5 = getelementptr inbounds nuw i8, ptr %0, i64 72
  %6 = load ptr, ptr %5, align 8, !tbaa !41
  %7 = tail call ptr @Aig_ManDupArray(ptr noundef %6) #13
  tail call void @Ioa_WriteAiger(ptr noundef %7, ptr noundef nonnull %spec.select, i32 noundef 0, i32 noundef 0) #13
  tail call void @Aig_ManStop(ptr noundef %7) #13
  %.not8 = icmp eq i32 %1, 0
  %.str.2..str.1 = select i1 %.not8, ptr @.str.2, ptr @.str.1
  %8 = tail call i32 (ptr, ...) @printf(ptr noundef nonnull dereferenceable(1) %.str.2..str.1, ptr noundef nonnull %spec.select)
  ret void
}